; Function Attrs: nounwind uwtable
define internal range(i32 -1, 1) i32 @H5D__btree_idx_init(ptr noundef readonly captures(none) %0, ptr readnone captures(none) %1, i64 noundef %2) #0 {
  %4 = load i8, ptr @H5D_init_g, align 1, !tbaa !3, !range !7, !noundef !8
  %5 = trunc nuw i8 %4 to i1
  %6 = load i8, ptr @H5_libterm_g, align 1, !range !7
  %7 = trunc nuw i8 %6 to i1
  %8 = xor i1 %7, true
  %9 = select i1 %5, i1 true, i1 %8
  br i1 %9, label %10, label %24, !prof !9

10:                                               ; preds = %3
  %11 = getelementptr inbounds nuw i8, ptr %0, i64 24
  %12 = load ptr, ptr %11, align 8, !tbaa !10
  %13 = getelementptr inbounds nuw i8, ptr %12, i64 24
  store i64 %2, ptr %13, align 8, !tbaa !17
  %14 = load ptr, ptr %0, align 8, !tbaa !18
  %15 = load ptr, ptr %11, align 8, !tbaa !10
  %16 = getelementptr inbounds nuw i8, ptr %0, i64 16
  %17 = load ptr, ptr %16, align 8, !tbaa !19
  %18 = tail call fastcc i32 @H5D__btree_shared_create(ptr noundef %14, ptr noundef %15, ptr noundef %17)
  %19 = icmp slt i32 %18, 0
  br i1 %19, label %20, label %24

20:                                               ; preds = %10
  %21 = load i64, ptr @H5E_RESOURCE_g, align 8, !tbaa !20
  %22 = load i64, ptr @H5E_CANTINIT_g, align 8, !tbaa !20
  %23 = tail call i32 (ptr, ptr, i32, i64, i64, ptr, ...) @H5E_printf_stack(ptr noundef nonnull @.str, ptr noundef nonnull @__func__.H5D__btree_idx_init, i32 noundef 829, i64 noundef %21, i64 noundef %22, ptr noundef nonnull @.str.2) #15
  br label %24

24:                                               ; preds = %20, %10, %3
  %.0 = phi i32 [ -1, %20 ], [ 0, %10 ], [ 0, %3 ]
  ret i32 %.0
}